target datalayout = "e-m:e-p270:32:32-p271:32:32-p272:64:64-i64:64-i128:128-f80:128-n8:16:32:64-S128"
target triple = "x86_64-pc-linux-gnu"

%class.aiVector3t = type { double, double, double }
%"class.std::vector" = type { %"struct.std::_Vector_base" }
%"struct.std::_Vector_base" = type { %"struct.std::_Vector_base<aiVector3t<double>, std::allocator<aiVector3t<double>>>::_Vector_impl" }
%"struct.std::_Vector_base<aiVector3t<double>, std::allocator<aiVector3t<double>>>::_Vector_impl" = type { %"struct.std::_Vector_base<aiVector3t<double>, std::allocator<aiVector3t<double>>>::_Vector_impl_data" }
%"struct.std::_Vector_base<aiVector3t<double>, std::allocator<aiVector3t<double>>>::_Vector_impl_data" = type { ptr, ptr, ptr }
%"struct.Assimp::IFC::TempMesh" = type { %"class.std::vector", %"class.std::vector.0" }
%"class.std::vector.0" = type { %"struct.std::_Vector_base.1" }
%"struct.std::_Vector_base.1" = type { %"struct.std::_Vector_base<unsigned int, std::allocator<unsigned int>>::_Vector_impl" }
%"struct.std::_Vector_base<unsigned int, std::allocator<unsigned int>>::_Vector_impl" = type { %"struct.std::_Vector_base<unsigned int, std::allocator<unsigned int>>::_Vector_impl_data" }
%"struct.std::_Vector_base<unsigned int, std::allocator<unsigned int>>::_Vector_impl_data" = type { ptr, ptr, ptr }
%"class.__gnu_cxx::__normal_iterator.8" = type { ptr }

; Function Attrs: mustprogress nounwind uwtable
define linkonce_odr hidden noundef nonnull align 8 dereferenceable(8) ptr @_ZNK9__gnu_cxx17__normal_iteratorIPK10aiVector3tIdESt6vectorIS2_SaIS2_EEE4baseEv(ptr noundef nonnull align 8 dereferenceable(8) %0) #1 comdat align 2 {
  %2 = alloca ptr, align 8
  store ptr %0, ptr %2, align 8
  %3 = load ptr, ptr %2, align 8
  %4 = getelementptr inbounds nuw %"class.__gnu_cxx::__normal_iterator.8", ptr %3, i32 0, i32 0
  ret ptr %4
}

; Function Attrs: inlinehint mustprogress uwtable
define linkonce_odr hidden void @_ZmlIdE10aiVector3tIT_ERKS2_S1_(ptr dead_on_unwind noalias writable sret(%class.aiVector3t) align 8 %0, ptr noundef nonnull align 8 dereferenceable(24) %1, double noundef %2) #4 comdat {
  %4 = alloca ptr, align 8
  %5 = alloca double, align 8
  store ptr %1, ptr %4, align 8
  store double %2, ptr %5, align 8
  %6 = load double, ptr %5, align 8
  %7 = load ptr, ptr %4, align 8
  %8 = getelementptr inbounds nuw %class.aiVector3t, ptr %7, i32 0, i32 0
  %9 = load double, ptr %8, align 8
  %10 = fmul double %6, %9
  %11 = load double, ptr %5, align 8
  %12 = load ptr, ptr %4, align 8
  %13 = getelementptr inbounds nuw %class.aiVector3t, ptr %12, i32 0, i32 1
  %14 = load double, ptr %13, align 8
  %15 = fmul double %11, %14
  %16 = load double, ptr %5, align 8
  %17 = load ptr, ptr %4, align 8
  %18 = getelementptr inbounds nuw %class.aiVector3t, ptr %17, i32 0, i32 2
  %19 = load double, ptr %18, align 8
  %20 = fmul double %16, %19
  call void @_ZN10aiVector3tIdEC2Eddd(ptr noundef nonnull align 8 dereferenceable(24) %0, double noundef %10, double noundef %15, double noundef %20)
  ret void
}

; Function Attrs: mustprogress nounwind uwtable
define linkonce_odr hidden noundef nonnull align 8 dereferenceable(8) ptr @_ZN9__gnu_cxx17__normal_iteratorIPK10aiVector3tIdESt6vectorIS2_SaIS2_EEEppEv(ptr noundef nonnull align 8 dereferenceable(8) %0) #1 comdat align 2 {
  %2 = alloca ptr, align 8
  store ptr %0, ptr %2, align 8
  %3 = load ptr, ptr %2, align 8
  %4 = getelementptr inbounds nuw %"class.__gnu_cxx::__normal_iterator.8", ptr %3, i32 0, i32 0
  %5 = load ptr, ptr %4, align 8
  %6 = getelementptr inbounds nuw %class.aiVector3t, ptr %5, i32 1
  store ptr %6, ptr %4, align 8
  ret ptr %3
}

; Function Attrs: inlinehint mustprogress uwtable
define linkonce_odr hidden void @_ZplIdE10aiVector3tIT_ERKS2_S4_(ptr dead_on_unwind noalias writable sret(%class.aiVector3t) align 8 %0, ptr noundef nonnull align 8 dereferenceable(24) %1, ptr noundef nonnull align 8 dereferenceable(24) %2) #4 comdat {
  %4 = alloca ptr, align 8
  %5 = alloca ptr, align 8
  store ptr %1, ptr %4, align 8
  store ptr %2, ptr %5, align 8
  %6 = load ptr, ptr %4, align 8
  %7 = getelementptr inbounds nuw %class.aiVector3t, ptr %6, i32 0, i32 0
  %8 = load double, ptr %7, align 8
  %9 = load ptr, ptr %5, align 8
  %10 = getelementptr inbounds nuw %class.aiVector3t, ptr %9, i32 0, i32 0
  %11 = load double, ptr %10, align 8
  %12 = fadd double %8, %11
  %13 = load ptr, ptr %4, align 8
  %14 = getelementptr inbounds nuw %class.aiVector3t, ptr %13, i32 0, i32 1
  %15 = load double, ptr %14, align 8
  %16 = load ptr, ptr %5, align 8
  %17 = getelementptr inbounds nuw %class.aiVector3t, ptr %16, i32 0, i32 1
  %18 = load double, ptr %17, align 8
  %19 = fadd double %15, %18
  %20 = load ptr, ptr %4, align 8
  %21 = getelementptr inbounds nuw %class.aiVector3t, ptr %20, i32 0, i32 2
  %22 = load double, ptr %21, align 8
  %23 = load ptr, ptr %5, align 8
  %24 = getelementptr inbounds nuw %class.aiVector3t, ptr %23, i32 0, i32 2
  %25 = load double, ptr %24, align 8
  %26 = fadd double %22, %25
  call void @_ZN10aiVector3tIdEC2Eddd(ptr noundef nonnull align 8 dereferenceable(24) %0, double noundef %12, double noundef %19, double noundef %26)
  ret void
}

; Function Attrs: mustprogress nounwind uwtable
define linkonce_odr hidden noundef nonnull align 8 dereferenceable(24) ptr @_ZNK9__gnu_cxx17__normal_iteratorIPK10aiVector3tIdESt6vectorIS2_SaIS2_EEEdeEv(ptr noundef nonnull align 8 dereferenceable(8) %0) #1 comdat align 2 {
  %2 = alloca ptr, align 8
  store ptr %0, ptr %2, align 8
  %3 = load ptr, ptr %2, align 8
  %4 = getelementptr inbounds nuw %"class.__gnu_cxx::__normal_iterator.8", ptr %3, i32 0, i32 0
  %5 = load ptr, ptr %4, align 8
  ret ptr %5
}

; Function Attrs: inlinehint mustprogress nounwind uwtable
define linkonce_odr hidden noundef zeroext i1 @_ZN9__gnu_cxxneIPK10aiVector3tIdESt6vectorIS2_SaIS2_EEEEbRKNS_17__normal_iteratorIT_T0_EESD_(ptr noundef nonnull align 8 dereferenceable(8) %0, ptr noundef nonnull align 8 dereferenceable(8) %1) #3 comdat {
  %3 = alloca ptr, align 8
  %4 = alloca ptr, align 8
  store ptr %0, ptr %3, align 8
  store ptr %1, ptr %4, align 8
  %5 = load ptr, ptr %3, align 8
  %6 = call noundef nonnull align 8 dereferenceable(8) ptr @_ZNK9__gnu_cxx17__normal_iteratorIPK10aiVector3tIdESt6vectorIS2_SaIS2_EEE4baseEv(ptr noundef nonnull align 8 dereferenceable(8) %5) #20
  %7 = load ptr, ptr %6, align 8
  %8 = load ptr, ptr %4, align 8
  %9 = call noundef nonnull align 8 dereferenceable(8) ptr @_ZNK9__gnu_cxx17__normal_iteratorIPK10aiVector3tIdESt6vectorIS2_SaIS2_EEE4baseEv(ptr noundef nonnull align 8 dereferenceable(8) %8) #20
  %10 = load ptr, ptr %9, align 8
  %11 = icmp ne ptr %7, %10
  ret i1 %11
}

; Function Attrs: mustprogress nounwind uwtable
define linkonce_odr hidden void @_ZN9__gnu_cxx17__normal_iteratorIPK10aiVector3tIdESt6vectorIS2_SaIS2_EEEC2ERKS4_(ptr noundef nonnull align 8 dereferenceable(8) %0, ptr noundef nonnull align 8 dereferenceable(8) %1) unnamed_addr #1 comdat align 2 {
  %3 = alloca ptr, align 8
  %4 = alloca ptr, align 8
  store ptr %0, ptr %3, align 8
  store ptr %1, ptr %4, align 8
  %5 = load ptr, ptr %3, align 8
  %6 = getelementptr inbounds nuw %"class.__gnu_cxx::__normal_iterator.8", ptr %5, i32 0, i32 0
  %7 = load ptr, ptr %4, align 8
  %8 = load ptr, ptr %7, align 8
  store ptr %8, ptr %6, align 8
  ret void
}

; Function Attrs: inlinehint mustprogress nounwind uwtable
define linkonce_odr hidden noundef zeroext i1 @_ZN9__gnu_cxxeqIPK10aiVector3tIdESt6vectorIS2_SaIS2_EEEEbRKNS_17__normal_iteratorIT_T0_EESD_(ptr noundef nonnull align 8 dereferenceable(8) %0, ptr noundef nonnull align 8 dereferenceable(8) %1) #3 comdat {
  %3 = alloca ptr, align 8
  %4 = alloca ptr, align 8
  store ptr %0, ptr %3, align 8
  store ptr %1, ptr %4, align 8
  %5 = load ptr, ptr %3, align 8
  %6 = call noundef nonnull align 8 dereferenceable(8) ptr @_ZNK9__gnu_cxx17__normal_iteratorIPK10aiVector3tIdESt6vectorIS2_SaIS2_EEE4baseEv(ptr noundef nonnull align 8 dereferenceable(8) %5) #20
  %7 = load ptr, ptr %6, align 8
  %8 = load ptr, ptr %4, align 8
  %9 = call noundef nonnull align 8 dereferenceable(8) ptr @_ZNK9__gnu_cxx17__normal_iteratorIPK10aiVector3tIdESt6vectorIS2_SaIS2_EEE4baseEv(ptr noundef nonnull align 8 dereferenceable(8) %8) #20
  %10 = load ptr, ptr %9, align 8
  %11 = icmp eq ptr %7, %10
  ret i1 %11
}

; Function Attrs: inlinehint mustprogress uwtable
define linkonce_odr hidden void @_ZdvIdE10aiVector3tIT_ERKS2_S1_(ptr dead_on_unwind noalias writable sret(%class.aiVector3t) align 8 %0, ptr noundef nonnull align 8 dereferenceable(24) %1, double noundef %2) #4 comdat {
  %4 = alloca ptr, align 8
  %5 = alloca double, align 8
  store ptr %1, ptr %4, align 8
  store double %2, ptr %5, align 8
  %6 = load ptr, ptr %4, align 8
  %7 = load double, ptr %5, align 8
  %8 = fdiv double 1.000000e+00, %7
  call void @_ZmlIdE10aiVector3tIT_ERKS2_S1_(ptr dead_on_unwind writable sret(%class.aiVector3t) align 8 %0, ptr noundef nonnull align 8 dereferenceable(24) %6, double noundef %8)
  ret void
}

; Function Attrs: mustprogress nounwind uwtable
define linkonce_odr hidden noundef i64 @_ZNKSt6vectorI10aiVector3tIdESaIS1_EE4sizeEv(ptr noundef nonnull align 8 dereferenceable(24) %0) #1 comdat align 2 {
  %2 = alloca ptr, align 8
  store ptr %0, ptr %2, align 8
  %3 = load ptr, ptr %2, align 8
  %4 = getelementptr inbounds nuw %"struct.std::_Vector_base", ptr %3, i32 0, i32 0
  %5 = getelementptr inbounds nuw %"struct.std::_Vector_base<aiVector3t<double>, std::allocator<aiVector3t<double>>>::_Vector_impl_data", ptr %4, i32 0, i32 1
  %6 = load ptr, ptr %5, align 8
  %7 = getelementptr inbounds nuw %"struct.std::_Vector_base", ptr %3, i32 0, i32 0
  %8 = getelementptr inbounds nuw %"struct.std::_Vector_base<aiVector3t<double>, std::allocator<aiVector3t<double>>>::_Vector_impl_data", ptr %7, i32 0, i32 0
  %9 = load ptr, ptr %8, align 8
  %10 = ptrtoint ptr %6 to i64
  %11 = ptrtoint ptr %9 to i64
  %12 = sub i64 %10, %11
  %13 = sdiv exact i64 %12, 24
  ret i64 %13
}

; Function Attrs: inlinehint mustprogress uwtable
define linkonce_odr hidden void @_ZSt10accumulateIN9__gnu_cxx17__normal_iteratorIPK10aiVector3tIdESt6vectorIS3_SaIS3_EEEES3_ET0_T_SB_SA_(ptr dead_on_unwind noalias writable sret(%class.aiVector3t) align 8 %0, ptr %1, ptr %2, ptr noundef byval(%class.aiVector3t) align 8 %3) #4 comdat {
  %5 = alloca %"class.__gnu_cxx::__normal_iterator.8", align 8
  %6 = alloca %"class.__gnu_cxx::__normal_iterator.8", align 8
  %7 = alloca %class.aiVector3t, align 8
  %8 = getelementptr inbounds nuw %"class.__gnu_cxx::__normal_iterator.8", ptr %5, i32 0, i32 0
  store ptr %1, ptr %8, align 8
  %9 = getelementptr inbounds nuw %"class.__gnu_cxx::__normal_iterator.8", ptr %6, i32 0, i32 0
  store ptr %2, ptr %9, align 8
  br label %10

10:                                               ; preds = %14, %4
  %11 = call noundef zeroext i1 @_ZN9__gnu_cxxneIPK10aiVector3tIdESt6vectorIS2_SaIS2_EEEEbRKNS_17__normal_iteratorIT_T0_EESD_(ptr noundef nonnull align 8 dereferenceable(8) %5, ptr noundef nonnull align 8 dereferenceable(8) %6) #20
  br i1 %11, label %12, label %16

12:                                               ; preds = %10
  call void @llvm.lifetime.start.p0(i64 24, ptr %7) #20
  %13 = call noundef nonnull align 8 dereferenceable(24) ptr @_ZNK9__gnu_cxx17__normal_iteratorIPK10aiVector3tIdESt6vectorIS2_SaIS2_EEEdeEv(ptr noundef nonnull align 8 dereferenceable(8) %5) #20
  call void @_ZplIdE10aiVector3tIT_ERKS2_S4_(ptr dead_on_unwind writable sret(%class.aiVector3t) align 8 %7, ptr noundef nonnull align 8 dereferenceable(24) %3, ptr noundef nonnull align 8 dereferenceable(24) %13)
  call void @llvm.memcpy.p0.p0.i64(ptr align 8 %3, ptr align 8 %7, i64 24, i1 false)
  call void @llvm.lifetime.end.p0(i64 24, ptr %7) #20
  br label %14

14:                                               ; preds = %12
  %15 = call noundef nonnull align 8 dereferenceable(8) ptr @_ZN9__gnu_cxx17__normal_iteratorIPK10aiVector3tIdESt6vectorIS2_SaIS2_EEEppEv(ptr noundef nonnull align 8 dereferenceable(8) %5) #20
  br label %10, !llvm.loop !6

16:                                               ; preds = %10
  call void @llvm.memcpy.p0.p0.i64(ptr align 8 %0, ptr align 8 %3, i64 24, i1 false)
  ret void
}

; Function Attrs: mustprogress nounwind uwtable
define linkonce_odr hidden void @_ZN10aiVector3tIdEC2Ev(ptr noundef nonnull align 8 dereferenceable(24) %0) unnamed_addr #1 comdat align 2 {
  %2 = alloca ptr, align 8
  store ptr %0, ptr %2, align 8
  %3 = load ptr, ptr %2, align 8
  %4 = getelementptr inbounds nuw %class.aiVector3t, ptr %3, i32 0, i32 0
  store double 0.000000e+00, ptr %4, align 8
  %5 = getelementptr inbounds nuw %class.aiVector3t, ptr %3, i32 0, i32 1
  store double 0.000000e+00, ptr %5, align 8
  %6 = getelementptr inbounds nuw %class.aiVector3t, ptr %3, i32 0, i32 2
  store double 0.000000e+00, ptr %6, align 8
  ret void
}

; Function Attrs: mustprogress nounwind uwtable
define linkonce_odr hidden ptr @_ZNKSt6vectorI10aiVector3tIdESaIS1_EE3endEv(ptr noundef nonnull align 8 dereferenceable(24) %0) #1 comdat align 2 {
  %2 = alloca %"class.__gnu_cxx::__normal_iterator.8", align 8
  %3 = alloca ptr, align 8
  store ptr %0, ptr %3, align 8
  %4 = load ptr, ptr %3, align 8
  %5 = getelementptr inbounds nuw %"struct.std::_Vector_base", ptr %4, i32 0, i32 0
  %6 = getelementptr inbounds nuw %"struct.std::_Vector_base<aiVector3t<double>, std::allocator<aiVector3t<double>>>::_Vector_impl_data", ptr %5, i32 0, i32 1
  call void @_ZN9__gnu_cxx17__normal_iteratorIPK10aiVector3tIdESt6vectorIS2_SaIS2_EEEC2ERKS4_(ptr noundef nonnull align 8 dereferenceable(8) %2, ptr noundef nonnull align 8 dereferenceable(8) %6) #20
  %7 = getelementptr inbounds nuw %"class.__gnu_cxx::__normal_iterator.8", ptr %2, i32 0, i32 0
  %8 = load ptr, ptr %7, align 8
  ret ptr %8
}

; Function Attrs: mustprogress nounwind uwtable
define linkonce_odr hidden ptr @_ZNKSt6vectorI10aiVector3tIdESaIS1_EE5beginEv(ptr noundef nonnull align 8 dereferenceable(24) %0) #1 comdat align 2 {
  %2 = alloca %"class.__gnu_cxx::__normal_iterator.8", align 8
  %3 = alloca ptr, align 8
  store ptr %0, ptr %3, align 8
  %4 = load ptr, ptr %3, align 8
  %5 = getelementptr inbounds nuw %"struct.std::_Vector_base", ptr %4, i32 0, i32 0
  %6 = getelementptr inbounds nuw %"struct.std::_Vector_base<aiVector3t<double>, std::allocator<aiVector3t<double>>>::_Vector_impl_data", ptr %5, i32 0, i32 0
  call void @_ZN9__gnu_cxx17__normal_iteratorIPK10aiVector3tIdESt6vectorIS2_SaIS2_EEEC2ERKS4_(ptr noundef nonnull align 8 dereferenceable(8) %2, ptr noundef nonnull align 8 dereferenceable(8) %6) #20
  %7 = getelementptr inbounds nuw %"class.__gnu_cxx::__normal_iterator.8", ptr %2, i32 0, i32 0
  %8 = load ptr, ptr %7, align 8
  ret ptr %8
}

; Function Attrs: mustprogress nounwind uwtable
define linkonce_odr hidden void @_ZN10aiVector3tIdEC2Eddd(ptr noundef nonnull align 8 dereferenceable(24) %0, double noundef %1, double noundef %2, double noundef %3) unnamed_addr #1 comdat align 2 {
  %5 = alloca ptr, align 8
  %6 = alloca double, align 8
  %7 = alloca double, align 8
  %8 = alloca double, align 8
  store ptr %0, ptr %5, align 8
  store double %1, ptr %6, align 8
  store double %2, ptr %7, align 8
  store double %3, ptr %8, align 8
  %9 = load ptr, ptr %5, align 8
  %10 = getelementptr inbounds nuw %class.aiVector3t, ptr %9, i32 0, i32 0
  %11 = load double, ptr %6, align 8
  store double %11, ptr %10, align 8
  %12 = getelementptr inbounds nuw %class.aiVector3t, ptr %9, i32 0, i32 1
  %13 = load double, ptr %7, align 8
  store double %13, ptr %12, align 8
  %14 = getelementptr inbounds nuw %class.aiVector3t, ptr %9, i32 0, i32 2
  %15 = load double, ptr %8, align 8
  store double %15, ptr %14, align 8
  ret void
}

; Function Attrs: mustprogress nounwind uwtable
define linkonce_odr hidden noundef zeroext i1 @_ZNKSt6vectorI10aiVector3tIdESaIS1_EE5emptyEv(ptr noundef nonnull align 8 dereferenceable(24) %0) #1 comdat align 2 {
  %2 = alloca ptr, align 8
  %3 = alloca %"class.__gnu_cxx::__normal_iterator.8", align 8
  %4 = alloca %"class.__gnu_cxx::__normal_iterator.8", align 8
  store ptr %0, ptr %2, align 8
  %5 = load ptr, ptr %2, align 8
  call void @llvm.lifetime.start.p0(i64 8, ptr %3) #20
  %6 = call ptr @_ZNKSt6vectorI10aiVector3tIdESaIS1_EE5beginEv(ptr noundef nonnull align 8 dereferenceable(24) %5) #20
  %7 = getelementptr inbounds nuw %"class.__gnu_cxx::__normal_iterator.8", ptr %3, i32 0, i32 0
  store ptr %6, ptr %7, align 8
  call void @llvm.lifetime.start.p0(i64 8, ptr %4) #20
  %8 = call ptr @_ZNKSt6vectorI10aiVector3tIdESaIS1_EE3endEv(ptr noundef nonnull align 8 dereferenceable(24) %5) #20
  %9 = getelementptr inbounds nuw %"class.__gnu_cxx::__normal_iterator.8", ptr %4, i32 0, i32 0
  store ptr %8, ptr %9, align 8
  %10 = call noundef zeroext i1 @_ZN9__gnu_cxxeqIPK10aiVector3tIdESt6vectorIS2_SaIS2_EEEEbRKNS_17__normal_iteratorIT_T0_EESD_(ptr noundef nonnull align 8 dereferenceable(8) %3, ptr noundef nonnull align 8 dereferenceable(8) %4) #20
  call void @llvm.lifetime.end.p0(i64 8, ptr %4) #20
  call void @llvm.lifetime.end.p0(i64 8, ptr %3) #20
  ret i1 %10
}

; Function Attrs: mustprogress uwtable
define hidden void @_ZNK6Assimp3IFC8TempMesh6CenterEv(ptr dead_on_unwind noalias writable sret(%class.aiVector3t) align 8 %0, ptr noundef nonnull align 8 dereferenceable(48) %1) #0 align 2 {
  %3 = alloca ptr, align 8
  %4 = alloca %class.aiVector3t, align 8
  %5 = alloca %"class.__gnu_cxx::__normal_iterator.8", align 8
  %6 = alloca %"class.__gnu_cxx::__normal_iterator.8", align 8
  %7 = alloca %class.aiVector3t, align 8
  store ptr %1, ptr %3, align 8
  %8 = load ptr, ptr %3, align 8
  %9 = getelementptr inbounds nuw %"struct.Assimp::IFC::TempMesh", ptr %8, i32 0, i32 0
  %10 = call noundef zeroext i1 @_ZNKSt6vectorI10aiVector3tIdESaIS1_EE5emptyEv(ptr noundef nonnull align 8 dereferenceable(24) %9) #20
  call void @llvm.lifetime.start.p0(i64 24, ptr %4) #20
  br i1 %10, label %11, label %12

11:                                               ; preds = %2
  call void @_ZN10aiVector3tIdEC2Eddd(ptr noundef nonnull align 8 dereferenceable(24) %0, double noundef 0.000000e+00, double noundef 0.000000e+00, double noundef 0.000000e+00)
  br label %26

12:                                               ; preds = %2
  %13 = getelementptr inbounds nuw %"struct.Assimp::IFC::TempMesh", ptr %8, i32 0, i32 0
  %14 = call ptr @_ZNKSt6vectorI10aiVector3tIdESaIS1_EE5beginEv(ptr noundef nonnull align 8 dereferenceable(24) %13) #20
  %15 = getelementptr inbounds nuw %"class.__gnu_cxx::__normal_iterator.8", ptr %5, i32 0, i32 0
  store ptr %14, ptr %15, align 8
  %16 = getelementptr inbounds nuw %"struct.Assimp::IFC::TempMesh", ptr %8, i32 0, i32 0
  %17 = call ptr @_ZNKSt6vectorI10aiVector3tIdESaIS1_EE3endEv(ptr noundef nonnull align 8 dereferenceable(24) %16) #20
  %18 = getelementptr inbounds nuw %"class.__gnu_cxx::__normal_iterator.8", ptr %6, i32 0, i32 0
  store ptr %17, ptr %18, align 8
  call void @_ZN10aiVector3tIdEC2Ev(ptr noundef nonnull align 8 dereferenceable(24) %7) #20
  %19 = getelementptr inbounds nuw %"class.__gnu_cxx::__normal_iterator.8", ptr %5, i32 0, i32 0
  %20 = load ptr, ptr %19, align 8
  %21 = getelementptr inbounds nuw %"class.__gnu_cxx::__normal_iterator.8", ptr %6, i32 0, i32 0
  %22 = load ptr, ptr %21, align 8
  call void @_ZSt10accumulateIN9__gnu_cxx17__normal_iteratorIPK10aiVector3tIdESt6vectorIS3_SaIS3_EEEES3_ET0_T_SB_SA_(ptr dead_on_unwind writable sret(%class.aiVector3t) align 8 %4, ptr %20, ptr %22, ptr noundef byval(%class.aiVector3t) align 8 %7)
  %23 = getelementptr inbounds nuw %"struct.Assimp::IFC::TempMesh", ptr %8, i32 0, i32 0
  %24 = call noundef i64 @_ZNKSt6vectorI10aiVector3tIdESaIS1_EE4sizeEv(ptr noundef nonnull align 8 dereferenceable(24) %23) #20
  %25 = uitofp i64 %24 to double
  call void @_ZdvIdE10aiVector3tIT_ERKS2_S1_(ptr dead_on_unwind writable sret(%class.aiVector3t) align 8 %0, ptr noundef nonnull align 8 dereferenceable(24) %4, double noundef %25)
  br label %26

26:                                               ; preds = %12, %11
  call void @llvm.lifetime.end.p0(i64 24, ptr %4) #20
  ret void
}