; Function Attrs: mustprogress nofree norecurse nosync nounwind memory(read, argmem: readwrite, inaccessiblemem: none) uwtable
define hidden void @_ZNK6Assimp3IFC8TempMesh6CenterEv(ptr dead_on_unwind noalias writable writeonly sret(%class.aiVector3t) align 8 captures(none) %0, ptr noundef nonnull readonly align 8 captures(none) dereferenceable(48) %1) local_unnamed_addr #6 align 2 {
  %3 = load ptr, ptr %1, align 8
  %4 = getelementptr inbounds nuw i8, ptr %1, i64 8
  %5 = load ptr, ptr %4, align 8
  %6 = icmp eq ptr %3, %5
  br i1 %6, label %7, label %.lr.ph.i

7:                                                ; preds = %2
  tail call void @llvm.memset.p0.i64(ptr noundef nonnull align 8 dereferenceable(24) %0, i8 0, i64 24, i1 false)
  br label %31

.lr.ph.i:                                         ; preds = %2, %.lr.ph.i
  %8 = phi double [ %18, %.lr.ph.i ], [ 0.000000e+00, %2 ]
  %9 = phi double [ %15, %.lr.ph.i ], [ 0.000000e+00, %2 ]
  %.sroa.02.06.i = phi ptr [ %19, %.lr.ph.i ], [ %3, %2 ]
  %10 = phi double [ %12, %.lr.ph.i ], [ 0.000000e+00, %2 ]
  %11 = load double, ptr %.sroa.02.06.i, align 8, !noalias !19
  %12 = fadd double %10, %11
  %13 = getelementptr inbounds nuw i8, ptr %.sroa.02.06.i, i64 8
  %14 = load double, ptr %13, align 8, !noalias !19
  %15 = fadd double %9, %14
  %16 = getelementptr inbounds nuw i8, ptr %.sroa.02.06.i, i64 16
  %17 = load double, ptr %16, align 8, !noalias !19
  %18 = fadd double %8, %17
  %19 = getelementptr inbounds nuw i8, ptr %.sroa.02.06.i, i64 24
  %.not.i = icmp eq ptr %19, %5
  br i1 %.not.i, label %_ZSt10accumulateIN9__gnu_cxx17__normal_iteratorIPK10aiVector3tIdESt6vectorIS3_SaIS3_EEEES3_ET0_T_SB_SA_.exit, label %.lr.ph.i, !llvm.loop !24

_ZSt10accumulateIN9__gnu_cxx17__normal_iteratorIPK10aiVector3tIdESt6vectorIS3_SaIS3_EEEES3_ET0_T_SB_SA_.exit: ; preds = %.lr.ph.i
  %20 = ptrtoint ptr %5 to i64
  %21 = ptrtoint ptr %3 to i64
  %22 = sub i64 %20, %21
  %23 = sdiv exact i64 %22, 24
  %24 = uitofp i64 %23 to double
  %25 = fdiv double 1.000000e+00, %24
  %26 = fmul double %25, %12
  %27 = fmul double %25, %15
  %28 = fmul double %25, %18
  store double %26, ptr %0, align 8, !alias.scope !25
  %29 = getelementptr inbounds nuw i8, ptr %0, i64 8
  store double %27, ptr %29, align 8, !alias.scope !25
  %30 = getelementptr inbounds nuw i8, ptr %0, i64 16
  store double %28, ptr %30, align 8, !alias.scope !25
  br label %31

31:                                               ; preds = %_ZSt10accumulateIN9__gnu_cxx17__normal_iteratorIPK10aiVector3tIdESt6vectorIS3_SaIS3_EEEES3_ET0_T_SB_SA_.exit, %7
  ret void
}